; Function Attrs: mustprogress nofree norecurse nosync nounwind willreturn memory(argmem: readwrite) uwtable
define noundef i32 @cli_bcapi_trace_source(ptr nocapture noundef %0, ptr noundef %1, i32 noundef %2) local_unnamed_addr #9 {
  %4 = getelementptr inbounds i8, ptr %0, i64 1176
  %5 = load i32, ptr %4, align 8
  %6 = icmp ult i32 %5, 4
  br i1 %6, label %17, label %7

7:                                                ; preds = %3
  %8 = getelementptr inbounds i8, ptr %0, i64 1160
  %9 = load ptr, ptr %8, align 8
  %.not = icmp eq ptr %9, %1
  br i1 %.not, label %10, label %13

10:                                               ; preds = %7
  %11 = getelementptr inbounds i8, ptr %0, i64 1184
  %12 = load i32, ptr %11, align 8
  %.not11 = icmp eq i32 %12, %2
  br i1 %.not11, label %17, label %13

13:                                               ; preds = %10, %7
  %14 = getelementptr inbounds i8, ptr %0, i64 1188
  store i32 0, ptr %14, align 4
  %.not12 = icmp eq ptr %1, null
  %15 = select i1 %.not12, ptr @.str.25, ptr %1
  store ptr %15, ptr %8, align 8
  %16 = getelementptr inbounds i8, ptr %0, i64 1184
  store i32 %2, ptr %16, align 8
  br label %17

17:                                               ; preds = %10, %13, %3
  ret i32 0
}